; ModuleID = '43/1587.c'
source_filename = "43/1587.c"
target datalayout = "e-m:e-p270:32:32-p271:32:32-p272:64:64-i64:64-f80:128-n8:16:32:64-S128"
target triple = "x86_64-pc-linux-gnu"

@.str = private unnamed_addr constant [3 x i8] c"%d\00", align 1
@.str.1 = private unnamed_addr constant [7 x i8] c"%d %d\0A\00", align 1

; Function Attrs: noinline nounwind uwtable
define dso_local i32 @main() #0 {
  %1 = alloca i32, align 4
  %2 = alloca [91 x i32], align 16
  %3 = alloca i32, align 4
  %4 = alloca i32, align 4
  %5 = alloca i32, align 4
  %6 = alloca i32, align 4
  %7 = alloca i32, align 4
  %8 = alloca i32, align 4
  %9 = alloca i32, align 4
  store i32 0, i32* %1, align 4
  %10 = getelementptr inbounds [91 x i32], [91 x i32]* %2, i64 0, i64 1
  store i32 2, i32* %10, align 4
  %11 = getelementptr inbounds [91 x i32], [91 x i32]* %2, i64 0, i64 2
  store i32 3, i32* %11, align 8
  %12 = getelementptr inbounds [91 x i32], [91 x i32]* %2, i64 0, i64 3
  store i32 5, i32* %12, align 4
  %13 = getelementptr inbounds [91 x i32], [91 x i32]* %2, i64 0, i64 4
  store i32 7, i32* %13, align 16
  store i32 4, i32* %6, align 4
  %14 = call i32 (i8*, ...) @__isoc99_scanf(i8* getelementptr inbounds ([3 x i8], [3 x i8]* @.str, i64 0, i64 0), i32* %3)
  store i32 11, i32* %4, align 4
  br label %15

15:                                               ; preds = %48, %0
  %16 = load i32, i32* %4, align 4
  %17 = load i32, i32* %3, align 4
  %18 = icmp sle i32 %16, %17
  br i1 %18, label %19, label %51

19:                                               ; preds = %15
  store i32 0, i32* %9, align 4
  store i32 1, i32* %5, align 4
  br label %20

20:                                               ; preds = %34, %19
  %21 = load i32, i32* %5, align 4
  %22 = load i32, i32* %6, align 4
  %23 = icmp sle i32 %21, %22
  br i1 %23, label %24, label %37

24:                                               ; preds = %20
  %25 = load i32, i32* %4, align 4
  %26 = load i32, i32* %5, align 4
  %27 = sext i32 %26 to i64
  %28 = getelementptr inbounds [91 x i32], [91 x i32]* %2, i64 0, i64 %27
  %29 = load i32, i32* %28, align 4
  %30 = srem i32 %25, %29
  %31 = icmp eq i32 %30, 0
  br i1 %31, label %32, label %33

32:                                               ; preds = %24
  store i32 1, i32* %9, align 4
  br label %33

33:                                               ; preds = %32, %24
  br label %34

34:                                               ; preds = %33
  %35 = load i32, i32* %5, align 4
  %36 = add nsw i32 %35, 1
  store i32 %36, i32* %5, align 4
  br label %20

37:                                               ; preds = %20
  %38 = load i32, i32* %9, align 4
  %39 = icmp eq i32 %38, 0
  br i1 %39, label %40, label %47

40:                                               ; preds = %37
  %41 = load i32, i32* %6, align 4
  %42 = add nsw i32 %41, 1
  store i32 %42, i32* %6, align 4
  %43 = load i32, i32* %4, align 4
  %44 = load i32, i32* %6, align 4
  %45 = sext i32 %44 to i64
  %46 = getelementptr inbounds [91 x i32], [91 x i32]* %2, i64 0, i64 %45
  store i32 %43, i32* %46, align 4
  br label %47

47:                                               ; preds = %40, %37
  br label %48

48:                                               ; preds = %47
  %49 = load i32, i32* %4, align 4
  %50 = add nsw i32 %49, 1
  store i32 %50, i32* %4, align 4
  br label %15

51:                                               ; preds = %15
  store i32 1, i32* %4, align 4
  br label %52

52:                                               ; preds = %91, %51
  %53 = load i32, i32* %4, align 4
  %54 = sext i32 %53 to i64
  %55 = getelementptr inbounds [91 x i32], [91 x i32]* %2, i64 0, i64 %54
  %56 = load i32, i32* %55, align 4
  %57 = load i32, i32* %3, align 4
  %58 = sdiv i32 %57, 2
  %59 = icmp sle i32 %56, %58
  br i1 %59, label %60, label %94

60:                                               ; preds = %52
  store i32 1, i32* %5, align 4
  br label %61

61:                                               ; preds = %88, %60
  %62 = load i32, i32* %5, align 4
  %63 = load i32, i32* %6, align 4
  %64 = icmp sle i32 %62, %63
  br i1 %64, label %65, label %91

65:                                               ; preds = %61
  %66 = load i32, i32* %4, align 4
  %67 = sext i32 %66 to i64
  %68 = getelementptr inbounds [91 x i32], [91 x i32]* %2, i64 0, i64 %67
  %69 = load i32, i32* %68, align 4
  %70 = load i32, i32* %5, align 4
  %71 = sext i32 %70 to i64
  %72 = getelementptr inbounds [91 x i32], [91 x i32]* %2, i64 0, i64 %71
  %73 = load i32, i32* %72, align 4
  %74 = add nsw i32 %69, %73
  %75 = load i32, i32* %3, align 4
  %76 = icmp eq i32 %74, %75
  br i1 %76, label %77, label %87

77:                                               ; preds = %65
  %78 = load i32, i32* %4, align 4
  %79 = sext i32 %78 to i64
  %80 = getelementptr inbounds [91 x i32], [91 x i32]* %2, i64 0, i64 %79
  %81 = load i32, i32* %80, align 4
  %82 = load i32, i32* %5, align 4
  %83 = sext i32 %82 to i64
  %84 = getelementptr inbounds [91 x i32], [91 x i32]* %2, i64 0, i64 %83
  %85 = load i32, i32* %84, align 4
  %86 = call i32 (i8*, ...) @printf(i8* getelementptr inbounds ([7 x i8], [7 x i8]* @.str.1, i64 0, i64 0), i32 %81, i32 %85)
  br label %87

87:                                               ; preds = %77, %65
  br label %88

88:                                               ; preds = %87
  %89 = load i32, i32* %5, align 4
  %90 = add nsw i32 %89, 1
  store i32 %90, i32* %5, align 4
  br label %61

91:                                               ; preds = %61
  %92 = load i32, i32* %4, align 4
  %93 = add nsw i32 %92, 1
  store i32 %93, i32* %4, align 4
  br label %52

94:                                               ; preds = %52
  %95 = load i32, i32* %1, align 4
  ret i32 %95
}

declare dso_local i32 @__isoc99_scanf(i8*, ...) #1

declare dso_local i32 @printf(i8*, ...) #1


!llvm.module.flags = !{!0}
!llvm.ident = !{!1}

!0 = !{i32 1, !"wchar_size", i32 4}
!1 = !{!"clang version 10.0.0-4ubuntu1 "}
